target datalayout = "e-m:e-p270:32:32-p271:32:32-p272:64:64-i64:64-i128:128-f80:128-n8:16:32:64-S128"
target triple = "x86_64-pc-linux-gnu"

%struct.ident_t = type { i32, i32, i32, i32, ptr }
%"struct.faiss::Index" = type <{ ptr, i32, [4 x i8], i64, i8, i8, [2 x i8], i32, float, [4 x i8] }>

@1 = private unnamed_addr constant %struct.ident_t { i32 0, i32 514, i32 0, i32 22, ptr @0 }, align 8

; Function Attrs: alwaysinline norecurse nounwind uwtable
define internal void @_ZNK5faiss5Index18compute_residual_nElPKfPfPKl.omp_outlined(ptr noalias noundef %0, ptr noalias noundef %1, ptr noundef nonnull align 8 dereferenceable(8) %2, ptr noundef %3, ptr noundef nonnull align 8 dereferenceable(8) %4, ptr noundef nonnull align 8 dereferenceable(8) %5, ptr noundef nonnull align 8 dereferenceable(8) %6) #19 personality ptr @__gxx_personality_v0 {
  %8 = alloca ptr, align 8
  %9 = alloca ptr, align 8
  %10 = alloca ptr, align 8
  %11 = alloca ptr, align 8
  %12 = alloca ptr, align 8
  %13 = alloca ptr, align 8
  %14 = alloca ptr, align 8
  %15 = alloca i64, align 8
  %16 = alloca i64, align 8
  %17 = alloca i64, align 8
  %18 = alloca i64, align 8
  %19 = alloca i64, align 8
  %20 = alloca i64, align 8
  %21 = alloca i64, align 8
  %22 = alloca i32, align 4
  %23 = alloca i64, align 8
  store ptr %0, ptr %8, align 8, !tbaa !83
  store ptr %1, ptr %9, align 8, !tbaa !83
  store ptr %2, ptr %10, align 8, !tbaa !13
  store ptr %3, ptr %11, align 8, !tbaa !4
  store ptr %4, ptr %12, align 8, !tbaa !78
  store ptr %5, ptr %13, align 8, !tbaa !78
  store ptr %6, ptr %14, align 8, !tbaa !85
  %24 = load ptr, ptr %10, align 8, !tbaa !13
  %25 = load ptr, ptr %11, align 8, !tbaa !4
  %26 = load ptr, ptr %12, align 8, !tbaa !78
  %27 = load ptr, ptr %13, align 8, !tbaa !78
  %28 = load ptr, ptr %14, align 8, !tbaa !85
  call void @llvm.lifetime.start.p0(i64 8, ptr %15) #16
  call void @llvm.lifetime.start.p0(i64 8, ptr %16) #16
  %29 = load i64, ptr %24, align 8, !tbaa !9
  store i64 %29, ptr %16, align 8, !tbaa !9
  call void @llvm.lifetime.start.p0(i64 8, ptr %17) #16
  %30 = load i64, ptr %16, align 8, !tbaa !9
  %31 = sub nsw i64 %30, 0
  %32 = sdiv i64 %31, 1
  %33 = sub nsw i64 %32, 1
  store i64 %33, ptr %17, align 8, !tbaa !9
  call void @llvm.lifetime.start.p0(i64 8, ptr %18) #16
  store i64 0, ptr %18, align 8, !tbaa !9
  call void @llvm.lifetime.end.p0(i64 8, ptr %18) #16
  %34 = load i64, ptr %16, align 8, !tbaa !9
  %35 = icmp slt i64 0, %34
  br i1 %35, label %36, label %89

36:                                               ; preds = %7
  call void @llvm.lifetime.start.p0(i64 8, ptr %19) #16
  store i64 0, ptr %19, align 8, !tbaa !9
  call void @llvm.lifetime.start.p0(i64 8, ptr %20) #16
  %37 = load i64, ptr %17, align 8, !tbaa !9
  store i64 %37, ptr %20, align 8, !tbaa !9
  call void @llvm.lifetime.start.p0(i64 8, ptr %21) #16
  store i64 1, ptr %21, align 8, !tbaa !9
  call void @llvm.lifetime.start.p0(i64 4, ptr %22) #16
  store i32 0, ptr %22, align 4, !tbaa !25
  call void @llvm.lifetime.start.p0(i64 8, ptr %23) #16
  %38 = load ptr, ptr %8, align 8
  %39 = load i32, ptr %38, align 4, !tbaa !25
  call void @__kmpc_for_static_init_8(ptr @1, i32 %39, i32 34, ptr %22, ptr %19, ptr %20, ptr %21, i64 1, i64 1)
  %40 = load i64, ptr %20, align 8, !tbaa !9
  %41 = load i64, ptr %17, align 8, !tbaa !9
  %42 = icmp sgt i64 %40, %41
  br i1 %42, label %43, label %45

43:                                               ; preds = %36
  %44 = load i64, ptr %17, align 8, !tbaa !9
  br label %47

45:                                               ; preds = %36
  %46 = load i64, ptr %20, align 8, !tbaa !9
  br label %47

47:                                               ; preds = %45, %43
  %48 = phi i64 [ %44, %43 ], [ %46, %45 ]
  store i64 %48, ptr %20, align 8, !tbaa !9
  %49 = load i64, ptr %19, align 8, !tbaa !9
  store i64 %49, ptr %15, align 8, !tbaa !9
  br label %50

50:                                               ; preds = %82, %47
  %51 = load i64, ptr %15, align 8, !tbaa !9
  %52 = load i64, ptr %20, align 8, !tbaa !9
  %53 = icmp sle i64 %51, %52
  br i1 %53, label %55, label %54

54:                                               ; preds = %50
  br label %85

55:                                               ; preds = %50
  %56 = load i64, ptr %15, align 8, !tbaa !9
  %57 = mul nsw i64 %56, 1
  %58 = add nsw i64 0, %57
  store i64 %58, ptr %23, align 8, !tbaa !9
  %59 = load ptr, ptr %26, align 8, !tbaa !11
  %60 = load i64, ptr %23, align 8, !tbaa !9
  %61 = getelementptr inbounds nuw %"struct.faiss::Index", ptr %25, i32 0, i32 1
  %62 = load i32, ptr %61, align 8, !tbaa !27
  %63 = sext i32 %62 to i64
  %64 = mul nsw i64 %60, %63
  %65 = getelementptr inbounds float, ptr %59, i64 %64
  %66 = load ptr, ptr %27, align 8, !tbaa !11
  %67 = load i64, ptr %23, align 8, !tbaa !9
  %68 = getelementptr inbounds nuw %"struct.faiss::Index", ptr %25, i32 0, i32 1
  %69 = load i32, ptr %68, align 8, !tbaa !27
  %70 = sext i32 %69 to i64
  %71 = mul nsw i64 %67, %70
  %72 = getelementptr inbounds float, ptr %66, i64 %71
  %73 = load ptr, ptr %28, align 8, !tbaa !13
  %74 = load i64, ptr %23, align 8, !tbaa !9
  %75 = getelementptr inbounds i64, ptr %73, i64 %74
  %76 = load i64, ptr %75, align 8, !tbaa !9
  %77 = load ptr, ptr %25, align 8, !tbaa !21
  %78 = getelementptr inbounds ptr, ptr %77, i64 14
  %79 = load ptr, ptr %78, align 8
  invoke void %79(ptr noundef nonnull align 8 dereferenceable(36) %25, ptr noundef %65, ptr noundef %72, i64 noundef %76)
          to label %80 unwind label %90

80:                                               ; preds = %55
  br label %81

81:                                               ; preds = %80
  br label %82

82:                                               ; preds = %81
  %83 = load i64, ptr %15, align 8, !tbaa !9
  %84 = add nsw i64 %83, 1
  store i64 %84, ptr %15, align 8, !tbaa !9
  br label %50

85:                                               ; preds = %54
  br label %86

86:                                               ; preds = %85
  %87 = load ptr, ptr %8, align 8
  %88 = load i32, ptr %87, align 4, !tbaa !25
  call void @__kmpc_for_static_fini(ptr @1, i32 %88)
  call void @llvm.lifetime.end.p0(i64 8, ptr %23) #16
  call void @llvm.lifetime.end.p0(i64 4, ptr %22) #16
  call void @llvm.lifetime.end.p0(i64 8, ptr %21) #16
  call void @llvm.lifetime.end.p0(i64 8, ptr %20) #16
  call void @llvm.lifetime.end.p0(i64 8, ptr %19) #16
  br label %89

89:                                               ; preds = %86, %7
  call void @llvm.lifetime.end.p0(i64 8, ptr %17) #16
  call void @llvm.lifetime.end.p0(i64 8, ptr %16) #16
  call void @llvm.lifetime.end.p0(i64 8, ptr %15) #16
  ret void

90:                                               ; preds = %55
  %91 = landingpad { ptr, i32 }
          catch ptr null
  %92 = extractvalue { ptr, i32 } %91, 0
  call void @__clang_call_terminate(ptr %92) #20
  unreachable
}