; Function Attrs: alwaysinline norecurse nounwind uwtable
define internal void @_ZNK5faiss5Index18compute_residual_nElPKfPfPKl.omp_outlined(ptr noalias noundef readonly captures(none) %0, ptr noalias readnone captures(none) %1, ptr noundef nonnull readonly align 8 captures(none) dereferenceable(8) %2, ptr noundef %3, ptr noundef nonnull readonly align 8 captures(none) dereferenceable(8) %4, ptr noundef nonnull readonly align 8 captures(none) dereferenceable(8) %5, ptr noundef nonnull readonly align 8 captures(none) dereferenceable(8) %6) #23 personality ptr @__gxx_personality_v0 {
  %8 = alloca i64, align 8
  %9 = alloca i64, align 8
  %10 = alloca i64, align 8
  %11 = alloca i32, align 4
  %12 = load i64, ptr %2, align 8, !tbaa !10
  %13 = icmp sgt i64 %12, 0
  br i1 %13, label %14, label %38

14:                                               ; preds = %7
  %15 = add nsw i64 %12, -1
  call void @llvm.lifetime.start.p0(i64 8, ptr nonnull %8) #19
  store i64 0, ptr %8, align 8, !tbaa !10
  call void @llvm.lifetime.start.p0(i64 8, ptr nonnull %9) #19
  store i64 %15, ptr %9, align 8, !tbaa !10
  call void @llvm.lifetime.start.p0(i64 8, ptr nonnull %10) #19
  store i64 1, ptr %10, align 8, !tbaa !10
  call void @llvm.lifetime.start.p0(i64 4, ptr nonnull %11) #19
  store i32 0, ptr %11, align 4, !tbaa !24
  %16 = load i32, ptr %0, align 4, !tbaa !24
  call void @__kmpc_for_static_init_8(ptr nonnull @1, i32 %16, i32 34, ptr nonnull %11, ptr nonnull %8, ptr nonnull %9, ptr nonnull %10, i64 1, i64 1)
  %17 = load i64, ptr %9, align 8, !tbaa !10
  %18 = call i64 @llvm.smin.i64(i64 %17, i64 %15)
  store i64 %18, ptr %9, align 8, !tbaa !10
  %19 = load i64, ptr %8, align 8, !tbaa !10
  %.not17 = icmp sgt i64 %19, %18
  br i1 %.not17, label %._crit_edge, label %.lr.ph

.lr.ph:                                           ; preds = %14
  %20 = getelementptr inbounds nuw i8, ptr %3, i64 8
  br label %21

21:                                               ; preds = %.lr.ph, %35
  %.018 = phi i64 [ %19, %.lr.ph ], [ %36, %35 ]
  %22 = load ptr, ptr %4, align 8, !tbaa !22
  %23 = load i32, ptr %20, align 8, !tbaa !26
  %24 = sext i32 %23 to i64
  %25 = mul nsw i64 %.018, %24
  %26 = getelementptr inbounds float, ptr %22, i64 %25
  %27 = load ptr, ptr %5, align 8, !tbaa !22
  %28 = getelementptr inbounds float, ptr %27, i64 %25
  %29 = load ptr, ptr %6, align 8, !tbaa !20
  %30 = getelementptr inbounds i64, ptr %29, i64 %.018
  %31 = load i64, ptr %30, align 8, !tbaa !10
  %32 = load ptr, ptr %3, align 8, !tbaa !18
  %33 = getelementptr inbounds nuw i8, ptr %32, i64 112
  %34 = load ptr, ptr %33, align 8
  invoke void %34(ptr noundef nonnull align 8 dereferenceable(36) %3, ptr noundef %26, ptr noundef %28, i64 noundef %31)
          to label %35 unwind label %39

35:                                               ; preds = %21
  %36 = add nsw i64 %.018, 1
  %37 = load i64, ptr %9, align 8, !tbaa !10
  %.not.not = icmp slt i64 %.018, %37
  br i1 %.not.not, label %21, label %._crit_edge

._crit_edge:                                      ; preds = %35, %14
  call void @__kmpc_for_static_fini(ptr nonnull @1, i32 %16)
  call void @llvm.lifetime.end.p0(i64 4, ptr nonnull %11) #19
  call void @llvm.lifetime.end.p0(i64 8, ptr nonnull %10) #19
  call void @llvm.lifetime.end.p0(i64 8, ptr nonnull %9) #19
  call void @llvm.lifetime.end.p0(i64 8, ptr nonnull %8) #19
  br label %38

38:                                               ; preds = %._crit_edge, %7
  ret void

39:                                               ; preds = %21
  %40 = landingpad { ptr, i32 }
          catch ptr null
  %41 = extractvalue { ptr, i32 } %40, 0
  call void @__clang_call_terminate(ptr %41) #27
  unreachable
}